(dp0
VDL
p1
F13.352226720647772
sVWN
p2
F7.721791058804573
sVHP
p3
F11.302374670184697
sVHA
p4
F5.142984063523794
sVFL
p5
F12.597913418875164
sVYV
p6
F14.252376957494407
sVPS
p7
F22.565604320377272
sVTW
p8
F15.20646677902954
sV9E
p9
F8.446150197628459
sVPA
p10
F10.811137202281113
sVPI
p11
F13.380371869077498
sVNW
p12
F12.646630340722144
sVAA
p13
F12.082770870337479
sVCO
p14
F18.53783818087734
sVEA
p15
F15.647864353401006
sVAL
p16
F12.117633820929111
sVXE
p17
F14.168841857730747
sVAS
p18
F14.632161759416269
sVEV
p19
F17.90081899355449
sVOO
p20
F11.151742755921347
sVOH
p21
F16.84980649411248
sVF9
p22
F10.614989683796363
sVUS
p23
F10.150210657720216
sVB6
p24
F12.849763192086844
sVMQ
p25
F12.327311530599976
sVUA
p26
F13.699216382675855
s.