(dp0
VAA
p1
F12.368954207046329
sVOO
p2
F11.151742755921347
sVDL
p3
F11.167481532399384
sVHA
p4
F5.142984063523794
sVCO
p5
F13.690951524899864
sVUA
p6
F11.215448758277264
sVOH
p7
F16.84980649411248
sVYV
p8
F14.252376957494407
sVF9
p9
F10.614989683796363
sV9E
p10
F8.446150197628459
sVB6
p11
F12.849763192086844
sVUS
p12
F10.150210657720216
sVXE
p13
F14.168841857730747
sVAS
p14
F13.839224380191094
sVMQ
p15
F12.327311530599976
sVWN
p16
F7.439316552447452
sVEV
p17
F17.90081899355449
sVFL
p18
F12.597913418875164
sVNW
p19
F10.744852794197437
s.