(dp0
VDL
p1
F9.437671216271909
sVWN
p2
F8.85385798014112
sVHP
p3
F7.4424802110817945
sVHA
p4
F3.7698928313620965
sVFL
p5
F10.519486749010673
sVYV
p6
F12.655393596196868
sVPS
p7
F18.12048376055374
sVTW
p8
F11.438481327064668
sV9E
p9
F6.9331699604743084
sVPA
p10
F6.196410600469641
sVPI
p11
F10.840444603800645
sVNW
p12
F8.958377314352552
sVAA
p13
F10.80279950160388
sVCO
p14
F16.361901135487148
sVEA
p15
F12.120968422236594
sVAL
p16
F9.057000482237582
sVXE
p17
F11.626807760141093
sVAS
p18
F11.337803812753712
sVEV
p19
F15.354133404293064
sVOO
p20
F9.909017775646282
sVOH
p21
F12.678835122004775
sVF9
p22
F8.769972650064776
sVUS
p23
F7.407583677927752
sVB6
p24
F11.557169202397418
sVMQ
p25
F10.56914552522945
sVUA
p26
F12.311015742815666
s.