(dp0
I14696
F13.039434523809524
sI10754
F24.418181818181818
sI11267
F12.756626153170304
sI12889
F10.39547203984605
sI13230
F9.930597992143168
sI11274
F8.820408163265306
sI11778
F6.135220125786163
sI11278
F7.600675625510432
sI13486
F9.051511758118702
sI15376
F8.537266638164457
sI10257
F8.630270874057526
sI12819
F19.849112426035504
sI15380
F9.531375166889186
sI10926
F19.932038834951456
sI14100
F11.225670825499915
sI11865
F6.817337461300309
sI10779
F4.864035087719298
sI10268
F10.895348837209303
sI10781
F12.358520267611176
sI13342
F11.002617092320188
sI13061
F6.583333333333333
sI10785
F10.286866359447005
sI11298
F11.573456369916547
sI12323
F10.227479526842584
sI13830
F6.473978735310577
sI14633
F9.711386696730552
sI10279
F8.150684931506849
sI10792
F10.03666427030913
sI15401
F8.454545454545455
sI11308
F15.913432835820895
sI14893
F8.603801938537831
sI11823
F9.287309048178614
sI10800
F8.481786788459397
sI13873
F20.81679389312977
sI12339
F9.144159351789332
sI15412
F9.687700271136308
sI13367
F11.548814785054239
sI16440
F9.441139505655634
sI14905
F2.8255813953488373
sI15431
F10.941176470588236
sI10299
F15.524521251751517
sI14908
F8.30406723698034
sI15370
F7.983535040810582
sI13377
F11.917582417582418
sI13891
F9.152263847391405
sI10821
F9.198643577650016
sI13198
F10.065585851142226
sI14689
F11.913182253431216
sI11337
F6.305220883534137
sI12363
F3.0479041916167664
sI13795
F10.84526558891455
sI15841
F21.067307692307693
sI12884
F10.248868778280542
sI14543
F11.459854014598541
sI12217
F8.03034630489111
sI10329
F1.7586206896551724
sI12891
F7.896396396396397
sI12892
F11.074731510962271
sI11869
F6.31
sI14307
F9.483506633201864
sI12896
F7.513455788124733
sI10849
F9.308063404548587
sI14256
F23.774358974358975
sI12390
F6.536585365853658
sI12391
F6.679734219269103
sI14952
F11.190114068441064
sI13930
F13.201850047665442
sI13931
F9.723641597697013
sI11884
F10.039521580863234
sI12397
F5.734767025089606
sI13422
F9.81155900922778
sI13424
F22.684895833333332
sI13360
F12.293526785714286
sI12402
F5.083700440528634
sI12915
F3.672043010752688
sI10868
F10.093927355278094
sI13502
F12.92369020501139
sI15991
F18.81904761904762
sI13076
F9.335429769392034
sI10874
F10.758552108194113
sI14783
F11.393927125506073
sI14869
F8.40574221792496
sI11905
F5.258620689655173
sI14955
F21.869565217391305
sI10372
F17.077114427860696
sI14986
F10.347010550996483
sI15383
F7.537037037037037
sI13964
F21.89855072463768
sI13933
F6.652849740932642
sI11921
F8.382596685082873
sI13970
F20.416030534351144
sI13459
F8.644444444444444
sI12436
F3.0582959641255605
sI11413
F9.452054794520548
sI12951
F8.279595015576325
sI12945
F9.881658692185008
sI12441
F12.668610301263362
sI12954
F9.42860422405877
sI14492
F9.422930648769574
sI10397
F11.915070927931856
sI10910
F10.470588235294118
sI11423
F10.901477832512315
sI12448
F8.73195084485407
sI13241
F11.734177215189874
sI12451
F8.672867222578576
sI13476
F11.722961249277038
sI10918
F7.518518518518518
sI10408
F9.905688622754491
sI11433
F9.127218601294514
sI13485
F8.90112749349523
sI11292
F13.981897309404326
sI13487
F9.403524550999185
sI15024
F10.014411529223379
sI11953
F13.109756097560975
sI10930
F25.706611570247933
sI15027
F11.81029810298103
sI12982
F4.400747896540978
sI10423
F7.417263439320156
sI14520
F5.564102564102564
sI14524
F10.478713849470092
sI12478
F11.074009039768479
sI10431
F11.88250883392226
sI12992
F9.8759765625
sI15041
F3.761904761904762
sI10434
F9.037900874635568
sI13851
F9.724569205113951
sI11973
F10.13751507840772
sI11041
F3.2878504672897195
sI15048
F6.786561264822135
sI11977
F9.804446978335234
sI14027
F11.793678219331232
sI14771
F16.73621568535753
sI11982
F10.550943396226415
sI11471
F6.486238532110092
sI14254
F3.7374301675977653
sI11986
F9.21870794078062
sI16101
F7.291666666666667
sI13433
F11.469740634005763
sI11995
F10.047355609648152
sI11996
F9.465400708078532
sI11898
F12.07345971563981
sI14711
F2.1091954022988504
sI13024
F18.707100591715978
sI14288
F10.783783783783784
sI12003
F7.714663143989432
sI10980
F8.865853658536585
sI10469
F8.849382716049382
sI12007
F11.54320987654321
sI14107
F9.329502954089653
sI12156
F6.7368421052631575
sI14570
F9.644509948415623
sI12523
F23.628544423440452
sI12012
F13.176842105263157
sI10990
F12.537313432835822
sI11503
F14.02959028831563
sI12016
F25.104895104895103
sI10994
F9.833333333333334
sI13988
F4.28135593220339
sI14583
F20.65625
sI15096
F10.249535219995868
sI11002
F19.95679012345679
sI11003
F10.183872224386443
sI14588
F12.726190476190476
sI14078
F13.300103842159917
sI13184
F8.427659574468086
sI11721
F10.283298097251585
sI11525
F2.353276353276353
sI15624
F15.22237017310253
sI13577
F11.38953488372093
sI11537
F3.697802197802198
sI14098
F12.1751677852349
sI11540
F8.247583081570998
sI13871
F9.679693688935833
sI14108
F7.896220371556694
sI13495
F8.715288989344527
sI14112
F1.0
sI10529
F7.85707422531828
sI11042
F8.865154731314936
sI14120
F85.0
sI11049
F7.823770491803279
sI14122
F10.612508309328605
sI14635
F9.462808253648717
sI15295
F7.460132890365449
sI11057
F11.300740376471873
sI15411
F6.7957957957957955
sI15070
F9.279527559055119
sI10551
F17.795180722891565
sI11577
F7.541284403669724
sI11066
F10.20903239421758
sI11067
F8.344459279038718
sI14730
F9.880476854002168
sI12094
F13.954118873826904
sI14843
F11.178698752228163
sI10561
F8.332992849846782
sI11076
F18.080645161290324
sI13127
F4.527397260273973
sI15177
F6.632352941176471
sI15389
F5.180904522613066
sI10577
F5.914956011730205
sI11603
F14.327698309492847
sI15304
F8.479331385355792
sI10581
F10.30654420206659
sI14679
F9.755120893244436
sI11097
F5.826271186440678
sI16218
F6.72737686139748
sI14683
F8.098497906919478
sI11612
F8.392318244170095
sI14685
F11.144682115270351
sI13029
F11.334256694367498
sI11617
F7.140127388535032
sI11618
F16.55239619860751
sI11109
F8.79858934169279
sI13158
F6.964214711729622
sI10599
F9.751192491152485
sI11624
F17.123949579831933
sI15994
F12.6875
sI14698
F14.571719226856562
sI15919
F11.760226557583385
sI11630
F11.52584670231729
sI14193
F9.815110098709187
sI11122
F9.743145743145742
sI11637
F9.526178010471204
sI11638
F13.415306696679798
sI14057
F9.076687703193727
sI11641
F9.701463414634146
sI10620
F10.507378777231201
sI11648
F4.341317365269461
sI10627
F12.388822829964328
sI11140
F6.512218495448011
sI14709
F11.761421319796954
sI12953
F10.710293196528172
sI14828
F17.152737752161382
sI11146
F10.865751334858887
sI14487
F22.084967320261438
sI12173
F6.764845137107911
sI11150
F8.494331065759637
sI15249
F10.757225433526012
sI13204
F9.254203838875371
sI14574
F10.890688259109313
sI10135
F8.38
sI10136
F10.76694214876033
sI14747
F10.72747006512149
sI10140
F8.620720007041633
sI14113
F3.6426426426426426
sI12191
F9.335961429381737
sI14576
F10.952212757116143
sI10146
F9.50214592274678
sI12197
F12.718546451834076
sI10666
F12.388235294117647
sI10155
F10.801724137931034
sI14252
F6.089665653495441
sI10157
F16.99270072992701
sI12206
F6.001268230818009
sI11695
F9.037037037037036
sI13232
F10.42350626997787
sI11697
F10.775640396506036
sI11699
F6.819444444444445
sI10165
F17.1
sI14262
F9.482803885534262
sI14489
F13.429455445544555
sI11193
F9.716551130442662
sI10170
F18.903508771929825
sI13244
F8.028747940691927
sI10685
F10.788104089219331
sI12223
F12.790368271954675
sI11203
F9.540609137055837
sI10693
F8.929086822805772
sI15016
F10.603961650546944
sI13256
F6.988429752066116
sI10185
F10.052104208416834
sI14794
F2.8775235531628534
sI15607
F13.579399141630901
sI14716
F24.333333333333332
sI13264
F17.74320241691843
sI12758
F6.18761329305136
sI10713
F8.73756770064008
sI15323
F9.050980392156863
sI13277
F10.454072790294628
sI14814
F8.05243445692884
sI10208
F11.91237677984666
sI10721
F9.798109563385228
sI14457
F8.128942486085343
sI10747
F4.968571428571429
sI13796
F7.37444874143429
sI12264
F10.331132530120481
sI12266
F9.437863919540698
sI10731
F11.67117117117117
sI10732
F6.818181818181818
sI14831
F7.795813781180539
sI13296
F11.121704394141146
sI14321
F12.093403004572176
sI13139
F9.775862068965518
sI11252
F10.067920585161964
sI12278
F9.336856941508104
sI13303
F12.923275277086631
sI12280
F7.236363636363636
sI11259
F7.807182098351869
sI11775
F12.089182058047493
s.