(dp0
VAA
p1
F11.66904420131942
sVOO
p2
F9.909017775646282
sVDL
p3
F8.583314776984965
sVHA
p4
F3.7698928313620965
sVCO
p5
F12.308354622007759
sVUA
p6
F10.881745769398918
sVOH
p7
F12.678835122004775
sVYV
p8
F12.655393596196868
sVF9
p9
F8.769972650064776
sV9E
p10
F6.9331699604743084
sVB6
p11
F11.557169202397418
sVUS
p12
F7.407583677927752
sVXE
p13
F11.626807760141093
sVAS
p14
F11.196808842815212
sVMQ
p15
F10.56914552522945
sVWN
p16
F8.696320560895364
sVEV
p17
F15.354133404293064
sVFL
p18
F10.519486749010673
sVNW
p19
F7.905736885690625
s.