(dp0
I14696
F14.154392191659273
sI10754
F24.418181818181818
sI11267
F11.127766069546892
sI13830
F6.054075389776989
sI13230
F11.076238174735671
sI11274
F8.820408163265306
sI11778
F6.135220125786163
sI11278
F7.635344827586207
sI13486
F6.697289156626506
sI15376
F7.100389682686955
sI10257
F8.39627659574468
sI12819
F21.3767258382643
sI15380
F9.531375166889186
sI10926
F23.3757225433526
sI14100
F11.495613642467102
sI12889
F10.409999736571745
sI10779
F3.369047619047619
sI10268
F15.742424242424242
sI10781
F13.86529933481153
sI13342
F11.002988458367684
sI13061
F6.583333333333333
sI10785
F10.92051905920519
sI11298
F10.916974199474643
sI12323
F14.039325842696629
sI10279
F6.270404984423676
sI10792
F11.040085780270537
sI15401
F8.454545454545455
sI11308
F15.913432835820895
sI14893
F7.729458555545512
sI11823
F10.176951672862453
sI10800
F7.451438336656223
sI13873
F21.747619047619047
sI12339
F9.143399174199308
sI15412
F10.779712801710968
sI13367
F11.543970510795155
sI14905
F2.8255813953488373
sI10299
F14.423988005997002
sI14908
F7.253221237320662
sI15370
F6.9824210946863765
sI13377
F12.147704590818364
sI13891
F7.866391412056152
sI10821
F8.867703126323816
sI13198
F8.87805882837604
sI14689
F10.714544795067102
sI11337
F5.328083989501312
sI12363
F3.0479041916167664
sI13795
F14.578947368421053
sI15841
F24.056962025316455
sI12884
F10.954545454545455
sI12217
F9.172309027777779
sI11865
F6.817337461300309
sI12891
F7.896396396396397
sI12892
F8.321427018566025
sI14307
F9.996959165942659
sI12896
F7.32449105490438
sI10849
F7.060052219321149
sI14256
F28.317241379310346
sI12391
F6.855431993156544
sI14952
F11.190114068441064
sI13930
F13.37644699294675
sI13931
F11.864628820960698
sI11884
F7.51391274476125
sI12397
F9.19718309859155
sI13422
F12.368228404099561
sI13424
F22.684895833333332
sI13360
F16.857142857142858
sI12402
F5.083700440528634
sI12915
F3.672043010752688
sI10868
F11.959443339960238
sI13502
F12.92369020501139
sI15991
F22.13714285714286
sI13076
F9.97910447761194
sI10874
F11.34142857142857
sI14783
F11.288669064748202
sI14869
F6.964841661687474
sI11905
F5.258620689655173
sI10372
F17.077114427860696
sI14986
F11.883402736466389
sI13964
F21.89855072463768
sI11921
F6.752764612954186
sI13970
F21.777251184834125
sI13459
F8.644444444444444
sI12436
F3.0582959641255605
sI11413
F9.474598930481283
sI12951
F7.667226890756303
sI12945
F10.75532821824382
sI12441
F11.692142088266953
sI12954
F8.92644243915778
sI14492
F10.625800906391623
sI10397
F12.30382824200398
sI11423
F10.225909211574198
sI12448
F8.922269596589045
sI13241
F11.734177215189874
sI12451
F9.616988525048978
sI13476
F11.466397849462366
sI10918
F7.518518518518518
sI10408
F10.248355263157896
sI11433
F8.26160981955993
sI13485
F9.192542590806815
sI11292
F10.097192982456141
sI13487
F8.315153459523046
sI15024
F9.132631578947368
sI11953
F16.34011090573013
sI10930
F25.706611570247933
sI15027
F13.754545454545454
sI12982
F4.247703515996199
sI10423
F7.417263439320156
sI14520
F5.564102564102564
sI14524
F12.257594777805673
sI12478
F11.056690539012438
sI10431
F12.871578947368421
sI12992
F10.998716302952504
sI15041
F3.761904761904762
sI10434
F10.282608695652174
sI13851
F8.218755980861244
sI11973
F10.332904056664521
sI11041
F3.2878504672897195
sI15048
F1.0
sI11977
F9.936651583710407
sI14027
F12.608374384236454
sI14771
F15.041381928625665
sI11982
F10.550943396226415
sI14543
F11.459854014598541
sI14254
F3.7374301675977653
sI11986
F9.406890894175554
sI13433
F13.297029702970297
sI11995
F13.02261208576998
sI11996
F10.697313182199832
sI11898
F13.416167664670658
sI14711
F2.1091954022988504
sI13024
F18.707100591715978
sI12003
F6.062953995157385
sI10980
F10.51778329197684
sI10469
F9.2873786407767
sI12007
F11.54320987654321
sI14107
F8.52253223606038
sI12156
F5.595744680851064
sI14570
F7.49989957822856
sI12523
F26.40643623361144
sI12012
F12.574610244988865
sI10990
F18.036649214659686
sI11503
F14.02959028831563
sI14576
F13.371408549404345
sI10994
F11.743918918918919
sI13988
F4.28135593220339
sI14633
F10.493093922651934
sI15096
F11.642648490749757
sI11002
F19.95679012345679
sI11003
F9.701408450704225
sI14588
F12.726190476190476
sI14078
F13.80065717415115
sI13184
F8.62936046511628
sI11721
F10.106111111111112
sI11525
F2.353276353276353
sI15624
F16.00646551724138
sI13577
F13.361141602634468
sI11537
F3.588050314465409
sI14098
F12.845934379457917
sI11540
F6.749587798845837
sI13871
F9.343963553530752
sI14108
F8.083125519534496
sI13495
F8.172746193449447
sI10529
F7.752493980048159
sI11042
F8.661377245508982
sI11049
F7.823770491803279
sI14122
F10.899851885610117
sI14635
F9.796426068675544
sI15295
F7.09771986970684
sI11057
F10.170461755375397
sI15411
F6.7957957957957955
sI15070
F9.279527559055119
sI10551
F19.71698113207547
sI11577
F8.774691358024691
sI11066
F10.32027397260274
sI11067
F8.429347826086957
sI14730
F11.516874292185731
sI12094
F13.9543429844098
sI14843
F11.726653158961135
sI10561
F6.943577430972389
sI11076
F18.080645161290324
sI13127
F4.527397260273973
sI15177
F6.632352941176471
sI15389
F5.180904522613066
sI10577
F6.862275449101796
sI11603
F10.20291095890411
sI15304
F8.619781914307744
sI10581
F11.170487106017193
sI14679
F8.672648205538339
sI11097
F5.826271186440678
sI16218
F7.517094017094017
sI14683
F7.707059069962296
sI11612
F8.50326797385621
sI14685
F13.772576636288319
sI13029
F10.742372881355932
sI11617
F7.140127388535032
sI11618
F17.6245587580109
sI11109
F7.641165172855314
sI13158
F6.524497991967872
sI10599
F10.841273018414732
sI11624
F24.678929765886288
sI14698
F14.571719226856562
sI15919
F11.760226557583385
sI11630
F11.944315545243619
sI14193
F10.340039254170756
sI11122
F7.066801619433198
sI11637
F8.060989643268124
sI11638
F11.967644084934276
sI14057
F7.427685118040448
sI11641
F13.342424242424242
sI10620
F7.017523364485982
sI11648
F3.5454545454545454
sI10627
F10.348837209302326
sI11140
F6.441972339146122
sI14709
F13.924528301886792
sI12953
F11.269797879390325
sI14828
F18.511811023622048
sI11146
F11.22439585730725
sI14487
F22.922190201729105
sI12173
F5.917379736823182
sI11150
F10.306060606060607
sI15249
F14.30546357615894
sI13204
F9.647476213513949
sI14574
F12.790865384615385
sI10135
F9.616616616616616
sI10136
F10.76694214876033
sI14747
F9.540688029337291
sI10140
F7.250539711396432
sI14113
F3.6426426426426426
sI12191
F9.283348595848596
sI10146
F9.50214592274678
sI12197
F13.030619596541786
sI10155
F10.801724137931034
sI14252
F4.001964636542239
sI10157
F15.701421800947868
sI12206
F5.391554702495202
sI11695
F10.264437689969604
sI13232
F10.400211416490487
sI11697
F11.325947867298579
sI11699
F6.819444444444445
sI10165
F17.1
sI14262
F8.592863677950595
sI14489
F13.140026420079261
sI11193
F9.924241528180259
sI10170
F18.903508771929825
sI13244
F6.879136770676901
sI10685
F10.788104089219331
sI12223
F8.718120805369127
sI11203
F9.96951219512195
sI10693
F9.754896474538333
sI15016
F8.948312940304042
sI13256
F5.670686456400742
sI10185
F10.052104208416834
sI14794
F2.8775235531628534
sI15607
F13.579399141630901
sI13264
F15.669483568075117
sI12758
F5.998158944461491
sI10713
F7.636414565826331
sI15323
F12.056
sI13277
F11.444700460829493
sI14814
F7.551315789473684
sI10208
F15.326498422712934
sI10721
F9.002821801314264
sI14457
F6.950777202072539
sI10747
F4.968571428571429
sI13796
F6.848610191925877
sI12264
F10.952449567723344
sI12266
F8.007525202328553
sI10731
F11.67117117117117
sI10732
F6.818181818181818
sI14831
F6.804774152065584
sI13296
F10.931786413195415
sI14321
F12.726530612244899
sI13139
F8.345070422535212
sI11252
F14.567757009345794
sI12278
F8.762941919191919
sI13303
F13.91919317686609
sI12280
F5.6997319034852545
sI11259
F8.198200429255406
sI11775
F10.809701492537313
s.